target datalayout = "e-m:e-p270:32:32-p271:32:32-p272:64:64-i64:64-i128:128-f80:128-n8:16:32:64-S128"
target triple = "x86_64-pc-linux-gnu"

%"class.std::__cxx11::basic_string.3" = type { %"struct.std::__cxx11::basic_string<char>::_Alloc_hider", i64, %union.anon.7 }
%"struct.std::__cxx11::basic_string<char>::_Alloc_hider" = type { ptr }
%union.anon.7 = type { i64, [8 x i8] }

@.str.7 = private unnamed_addr constant [68 x i8] c"basic_string::at: __n (which is %zu) >= this->size() (which is %zu)\00", align 1

; Function Attrs: mustprogress nounwind optsize uwtable
define linkonce_odr noundef ptr @_ZNKSt7__cxx1112basic_stringIcSt11char_traitsIcESaIcEE7_M_dataEv(ptr noundef nonnull align 8 dereferenceable(32) %0) #2 comdat align 2 {
  %2 = alloca ptr, align 8
  store ptr %0, ptr %2, align 8, !tbaa !26
  %3 = load ptr, ptr %2, align 8
  %4 = getelementptr inbounds nuw %"class.std::__cxx11::basic_string.3", ptr %3, i32 0, i32 0
  %5 = getelementptr inbounds nuw %"struct.std::__cxx11::basic_string<char>::_Alloc_hider", ptr %4, i32 0, i32 0
  %6 = load ptr, ptr %5, align 8, !tbaa !69
  ret ptr %6
}

; Function Attrs: mustprogress nounwind optsize uwtable
define linkonce_odr noundef i64 @_ZNKSt7__cxx1112basic_stringIcSt11char_traitsIcESaIcEE4sizeEv(ptr noundef nonnull align 8 dereferenceable(32) %0) #2 comdat align 2 {
  %2 = alloca ptr, align 8
  store ptr %0, ptr %2, align 8, !tbaa !26
  %3 = load ptr, ptr %2, align 8
  %4 = getelementptr inbounds nuw %"class.std::__cxx11::basic_string.3", ptr %3, i32 0, i32 1
  %5 = load i64, ptr %4, align 8, !tbaa !68
  ret i64 %5
}

; Function Attrs: mustprogress nounwind optsize uwtable
define linkonce_odr noundef zeroext i8 @_ZN5ZXing11narrow_castIhiEET_OT0_(ptr noundef nonnull align 4 dereferenceable(4) %0) #2 comdat {
  %2 = alloca ptr, align 8
  store ptr %0, ptr %2, align 8, !tbaa !126
  %3 = load ptr, ptr %2, align 8, !tbaa !126
  %4 = load i32, ptr %3, align 4, !tbaa !12
  %5 = trunc i32 %4 to i8
  ret i8 %5
}

; Function Attrs: mustprogress optsize uwtable
define linkonce_odr noundef nonnull align 1 dereferenceable(1) ptr @_ZNKSt7__cxx1112basic_stringIcSt11char_traitsIcESaIcEE2atEm(ptr noundef nonnull align 8 dereferenceable(32) %0, i64 noundef %1) #0 comdat align 2 {
  %3 = alloca ptr, align 8
  %4 = alloca i64, align 8
  store ptr %0, ptr %3, align 8, !tbaa !26
  store i64 %1, ptr %4, align 8, !tbaa !15
  %5 = load ptr, ptr %3, align 8
  %6 = load i64, ptr %4, align 8, !tbaa !15
  %7 = call noundef i64 @_ZNKSt7__cxx1112basic_stringIcSt11char_traitsIcESaIcEE4sizeEv(ptr noundef nonnull align 8 dereferenceable(32) %5) #21
  %8 = icmp uge i64 %6, %7
  br i1 %8, label %9, label %12

9:                                                ; preds = %2
  %10 = load i64, ptr %4, align 8, !tbaa !15
  %11 = call noundef i64 @_ZNKSt7__cxx1112basic_stringIcSt11char_traitsIcESaIcEE4sizeEv(ptr noundef nonnull align 8 dereferenceable(32) %5) #21
  call void (ptr, ...) @_ZSt24__throw_out_of_range_fmtPKcz(ptr noundef @.str.7, i64 noundef %10, i64 noundef %11) #24
  unreachable

12:                                               ; preds = %2
  %13 = call noundef ptr @_ZNKSt7__cxx1112basic_stringIcSt11char_traitsIcESaIcEE7_M_dataEv(ptr noundef nonnull align 8 dereferenceable(32) %5) #19
  %14 = load i64, ptr %4, align 8, !tbaa !15
  %15 = getelementptr inbounds nuw i8, ptr %13, i64 %14
  ret ptr %15
}

; Function Attrs: mustprogress optsize uwtable
define internal void @_ZN5ZXing10DataMatrix10C40EncoderL17EncodeToCodewordsERNS0_14EncoderContextERKNSt7__cxx1112basic_stringIcSt11char_traitsIcESaIcEEEi(ptr noundef nonnull align 8 dereferenceable(100) %0, ptr noundef nonnull align 8 dereferenceable(32) %1, i32 noundef %2) #0 {
  %4 = alloca ptr, align 8
  %5 = alloca ptr, align 8
  %6 = alloca i32, align 4
  %7 = alloca i32, align 4
  %8 = alloca i32, align 4
  %9 = alloca i32, align 4
  %10 = alloca i32, align 4
  %11 = alloca i32, align 4
  %12 = alloca i32, align 4
  store ptr %0, ptr %4, align 8, !tbaa !24
  store ptr %1, ptr %5, align 8, !tbaa !26
  store i32 %2, ptr %6, align 4, !tbaa !12
  call void @llvm.lifetime.start.p0(i64 4, ptr %7) #20
  %13 = load ptr, ptr %5, align 8, !tbaa !26
  %14 = load i32, ptr %6, align 4, !tbaa !12
  %15 = sext i32 %14 to i64
  %16 = call noundef nonnull align 1 dereferenceable(1) ptr @_ZNKSt7__cxx1112basic_stringIcSt11char_traitsIcESaIcEE2atEm(ptr noundef nonnull align 8 dereferenceable(32) %13, i64 noundef %15) #19
  %17 = load i8, ptr %16, align 1, !tbaa !46
  %18 = sext i8 %17 to i32
  store i32 %18, ptr %7, align 4, !tbaa !12
  call void @llvm.lifetime.start.p0(i64 4, ptr %8) #20
  %19 = load ptr, ptr %5, align 8, !tbaa !26
  %20 = load i32, ptr %6, align 4, !tbaa !12
  %21 = add nsw i32 %20, 1
  %22 = sext i32 %21 to i64
  %23 = call noundef nonnull align 1 dereferenceable(1) ptr @_ZNKSt7__cxx1112basic_stringIcSt11char_traitsIcESaIcEE2atEm(ptr noundef nonnull align 8 dereferenceable(32) %19, i64 noundef %22) #19
  %24 = load i8, ptr %23, align 1, !tbaa !46
  %25 = sext i8 %24 to i32
  store i32 %25, ptr %8, align 4, !tbaa !12
  call void @llvm.lifetime.start.p0(i64 4, ptr %9) #20
  %26 = load ptr, ptr %5, align 8, !tbaa !26
  %27 = load i32, ptr %6, align 4, !tbaa !12
  %28 = add nsw i32 %27, 2
  %29 = sext i32 %28 to i64
  %30 = call noundef nonnull align 1 dereferenceable(1) ptr @_ZNKSt7__cxx1112basic_stringIcSt11char_traitsIcESaIcEE2atEm(ptr noundef nonnull align 8 dereferenceable(32) %26, i64 noundef %29) #19
  %31 = load i8, ptr %30, align 1, !tbaa !46
  %32 = sext i8 %31 to i32
  store i32 %32, ptr %9, align 4, !tbaa !12
  call void @llvm.lifetime.start.p0(i64 4, ptr %10) #20
  %33 = load i32, ptr %7, align 4, !tbaa !12
  %34 = mul nsw i32 1600, %33
  %35 = load i32, ptr %8, align 4, !tbaa !12
  %36 = mul nsw i32 40, %35
  %37 = add nsw i32 %34, %36
  %38 = load i32, ptr %9, align 4, !tbaa !12
  %39 = add nsw i32 %37, %38
  %40 = add nsw i32 %39, 1
  store i32 %40, ptr %10, align 4, !tbaa !12
  %41 = load ptr, ptr %4, align 8, !tbaa !24
  call void @llvm.lifetime.start.p0(i64 4, ptr %11) #20
  %42 = load i32, ptr %10, align 4, !tbaa !12
  %43 = sdiv i32 %42, 256
  store i32 %43, ptr %11, align 4, !tbaa !12
  %44 = call noundef zeroext i8 @_ZN5ZXing11narrow_castIhiEET_OT0_(ptr noundef nonnull align 4 dereferenceable(4) %11) #21
  call void @_ZN5ZXing10DataMatrix14EncoderContext11addCodewordEh(ptr noundef nonnull align 8 dereferenceable(100) %41, i8 noundef zeroext %44) #19
  call void @llvm.lifetime.end.p0(i64 4, ptr %11) #20
  %45 = load ptr, ptr %4, align 8, !tbaa !24
  call void @llvm.lifetime.start.p0(i64 4, ptr %12) #20
  %46 = load i32, ptr %10, align 4, !tbaa !12
  %47 = srem i32 %46, 256
  store i32 %47, ptr %12, align 4, !tbaa !12
  %48 = call noundef zeroext i8 @_ZN5ZXing11narrow_castIhiEET_OT0_(ptr noundef nonnull align 4 dereferenceable(4) %12) #21
  call void @_ZN5ZXing10DataMatrix14EncoderContext11addCodewordEh(ptr noundef nonnull align 8 dereferenceable(100) %45, i8 noundef zeroext %48) #19
  call void @llvm.lifetime.end.p0(i64 4, ptr %12) #20
  call void @llvm.lifetime.end.p0(i64 4, ptr %10) #20
  call void @llvm.lifetime.end.p0(i64 4, ptr %9) #20
  call void @llvm.lifetime.end.p0(i64 4, ptr %8) #20
  call void @llvm.lifetime.end.p0(i64 4, ptr %7) #20
  ret void
}

; Function Attrs: mustprogress optsize uwtable
define internal void @_ZN5ZXing10DataMatrix10C40EncoderL16WriteNextTripletERNS0_14EncoderContextERNSt7__cxx1112basic_stringIcSt11char_traitsIcESaIcEEE(ptr noundef nonnull align 8 dereferenceable(100) %0, ptr noundef nonnull align 8 dereferenceable(32) %1) #0 {
  %3 = alloca ptr, align 8
  %4 = alloca ptr, align 8
  store ptr %0, ptr %3, align 8, !tbaa !24
  store ptr %1, ptr %4, align 8, !tbaa !26
  %5 = load ptr, ptr %3, align 8, !tbaa !24
  %6 = load ptr, ptr %4, align 8, !tbaa !26
  call void @_ZN5ZXing10DataMatrix10C40EncoderL17EncodeToCodewordsERNS0_14EncoderContextERKNSt7__cxx1112basic_stringIcSt11char_traitsIcESaIcEEEi(ptr noundef nonnull align 8 dereferenceable(100) %5, ptr noundef nonnull align 8 dereferenceable(32) %6, i32 noundef 0) #19
  %7 = load ptr, ptr %4, align 8, !tbaa !26
  %8 = call noundef nonnull align 8 dereferenceable(32) ptr @_ZNSt7__cxx1112basic_stringIcSt11char_traitsIcESaIcEE5eraseEmm(ptr noundef nonnull align 8 dereferenceable(32) %7, i64 noundef 0, i64 noundef 3) #19
  ret void
}