; Function Attrs: mustprogress optsize uwtable
define internal fastcc void @_ZN5ZXing10DataMatrix10C40EncoderL16WriteNextTripletERNS0_14EncoderContextERNSt7__cxx1112basic_stringIcSt11char_traitsIcESaIcEEE(ptr noundef nonnull align 8 dereferenceable(100) %0, ptr noundef nonnull align 8 dereferenceable(32) %1) unnamed_addr #0 {
  %.val = load ptr, ptr %1, align 8
  %3 = getelementptr inbounds nuw i8, ptr %1, i64 8
  %.val3 = load i64, ptr %3, align 8, !tbaa !11
  %.not.i.not.i = icmp eq i64 %.val3, 0
  br i1 %.not.i.not.i, label %4, label %_ZNKSt7__cxx1112basic_stringIcSt11char_traitsIcESaIcEE2atEm.exit.i

4:                                                ; preds = %2
  tail call void (ptr, ...) @_ZSt24__throw_out_of_range_fmtPKcz(ptr noundef nonnull @.str.7, i64 noundef 0, i64 noundef 0) #24
  unreachable

_ZNKSt7__cxx1112basic_stringIcSt11char_traitsIcESaIcEE2atEm.exit.i: ; preds = %2
  %5 = load i8, ptr %.val, align 1, !tbaa !12
  %.not.i12.not.i = icmp eq i64 %.val3, 1
  br i1 %.not.i12.not.i, label %6, label %_ZNKSt7__cxx1112basic_stringIcSt11char_traitsIcESaIcEE2atEm.exit13.i

6:                                                ; preds = %_ZNKSt7__cxx1112basic_stringIcSt11char_traitsIcESaIcEE2atEm.exit.i
  tail call void (ptr, ...) @_ZSt24__throw_out_of_range_fmtPKcz(ptr noundef nonnull @.str.7, i64 noundef 1, i64 noundef 1) #24
  unreachable

_ZNKSt7__cxx1112basic_stringIcSt11char_traitsIcESaIcEE2atEm.exit13.i: ; preds = %_ZNKSt7__cxx1112basic_stringIcSt11char_traitsIcESaIcEE2atEm.exit.i
  %.not.i14.i = icmp ugt i64 %.val3, 2
  br i1 %.not.i14.i, label %_ZN5ZXing10DataMatrix10C40EncoderL17EncodeToCodewordsERNS0_14EncoderContextERKNSt7__cxx1112basic_stringIcSt11char_traitsIcESaIcEEEi.exit, label %7

7:                                                ; preds = %_ZNKSt7__cxx1112basic_stringIcSt11char_traitsIcESaIcEE2atEm.exit13.i
  tail call void (ptr, ...) @_ZSt24__throw_out_of_range_fmtPKcz(ptr noundef nonnull @.str.7, i64 noundef 2, i64 noundef %.val3) #24
  unreachable

_ZN5ZXing10DataMatrix10C40EncoderL17EncodeToCodewordsERNS0_14EncoderContextERKNSt7__cxx1112basic_stringIcSt11char_traitsIcESaIcEEEi.exit: ; preds = %_ZNKSt7__cxx1112basic_stringIcSt11char_traitsIcESaIcEE2atEm.exit13.i
  %8 = getelementptr inbounds nuw i8, ptr %.val, i64 1
  %9 = load i8, ptr %8, align 1, !tbaa !12
  %10 = sext i8 %9 to i32
  %11 = sext i8 %5 to i32
  %12 = getelementptr inbounds nuw i8, ptr %.val, i64 2
  %13 = load i8, ptr %12, align 1, !tbaa !12
  %14 = sext i8 %13 to i32
  %15 = mul nsw i32 %11, 1600
  %16 = mul nsw i32 %10, 40
  %17 = or disjoint i32 %15, 1
  %18 = add nsw i32 %17, %16
  %19 = add nsw i32 %18, %14
  %20 = sdiv i32 %19, 256
  %21 = trunc i32 %20 to i8
  tail call void @_ZN5ZXing10DataMatrix14EncoderContext11addCodewordEh(ptr noundef nonnull align 8 dereferenceable(100) %0, i8 noundef zeroext %21) #21
  %22 = trunc i32 %19 to i8
  tail call void @_ZN5ZXing10DataMatrix14EncoderContext11addCodewordEh(ptr noundef nonnull align 8 dereferenceable(100) %0, i8 noundef zeroext %22) #21
  %23 = tail call noundef nonnull align 8 dereferenceable(32) ptr @_ZNSt7__cxx1112basic_stringIcSt11char_traitsIcESaIcEE5eraseEmm(ptr noundef nonnull align 8 dereferenceable(32) %1, i64 noundef 0, i64 noundef 3) #21
  ret void
}